; Function Attrs: nounwind sspstrong uwtable
define internal i64 @memory_view_ref_count_while_exporting(i64 %0, i64 noundef %1, i64 noundef %2) #0 {
  %4 = and i64 %2, 1
  %.not15.i = icmp eq i64 %4, 0
  br i1 %.not15.i, label %rbimpl_RB_TYPE_P_fastpath.exit.thread.i, label %Check_Type.exit, !prof !45

rbimpl_RB_TYPE_P_fastpath.exit.thread.i:          ; preds = %3
  tail call void @rb_unexpected_type(i64 noundef %2, i32 noundef 21) #10
  unreachable

Check_Type.exit:                                  ; preds = %3
  %5 = ashr i64 %2, 1
  %6 = tail call fastcc i64 @memory_view_ref_count_while_exporting_i(i64 noundef %1, i64 noundef %5)
  ret i64 %6
}